target datalayout = "e-m:e-p270:32:32-p271:32:32-p272:64:64-i64:64-i128:128-f80:128-n8:16:32:64-S128"
target triple = "x86_64-pc-linux-gnu"

%struct.X509_algor_st = type { ptr, ptr }
%struct.asn1_string_st = type { i32, i32, ptr, i64 }
%struct.X509_acert_st = type { ptr, %struct.X509_algor_st, %struct.asn1_string_st }
%struct.X509_acert_info_st = type { %struct.asn1_string_st, %struct.X509_holder_st, %struct.X509_acert_issuer_st, %struct.X509_algor_st, %struct.asn1_string_st, %struct.X509_val_st, ptr, ptr, ptr }
%struct.X509_holder_st = type { ptr, ptr, ptr }
%struct.X509_acert_issuer_st = type { i32, %union.anon }
%union.anon = type { ptr }
%struct.X509_val_st = type { ptr, ptr }
%struct.CONF_VALUE = type { ptr, ptr, ptr }

@.str.8 = private unnamed_addr constant [36 x i8] c"../openssl/crypto/x509/x509_acert.c\00", align 1
@__func__.X509_ACERT_add_attr_nconf = private unnamed_addr constant [26 x i8] c"X509_ACERT_add_attr_nconf\00", align 1
@.str.9 = private unnamed_addr constant [19 x i8] c"name=%s,section=%s\00", align 1
@.str.33 = private unnamed_addr constant [6 x i8] c"ASN1:\00", align 1

; Function Attrs: nounwind uwtable
define i32 @X509_ACERT_add1_attr_by_txt(ptr noundef %0, ptr noundef %1, i32 noundef %2, ptr noundef %3, i32 noundef %4) #0 {
  %6 = alloca ptr, align 8
  %7 = alloca ptr, align 8
  %8 = alloca i32, align 4
  %9 = alloca ptr, align 8
  %10 = alloca i32, align 4
  %11 = alloca ptr, align 8
  store ptr %0, ptr %6, align 8, !tbaa !12
  store ptr %1, ptr %7, align 8, !tbaa !78
  store i32 %2, ptr %8, align 4, !tbaa !33
  store ptr %3, ptr %9, align 8, !tbaa !78
  store i32 %4, ptr %10, align 4, !tbaa !33
  call void @llvm.lifetime.start.p0(i64 8, ptr %11) #5
  %12 = load ptr, ptr %6, align 8, !tbaa !12
  %13 = getelementptr inbounds nuw %struct.X509_acert_st, ptr %12, i32 0, i32 0
  %14 = load ptr, ptr %13, align 8, !tbaa !51
  %15 = getelementptr inbounds nuw %struct.X509_acert_info_st, ptr %14, i32 0, i32 6
  store ptr %15, ptr %11, align 8, !tbaa !76
  %16 = load ptr, ptr %11, align 8, !tbaa !76
  %17 = load ptr, ptr %7, align 8, !tbaa !78
  %18 = load i32, ptr %8, align 4, !tbaa !33
  %19 = load ptr, ptr %9, align 8, !tbaa !78
  %20 = load i32, ptr %10, align 4, !tbaa !33
  %21 = call ptr @X509at_add1_attr_by_txt(ptr noundef %16, ptr noundef %17, i32 noundef %18, ptr noundef %19, i32 noundef %20)
  %22 = icmp ne ptr %21, null
  %23 = zext i1 %22 to i32
  call void @llvm.lifetime.end.p0(i64 8, ptr %11) #5
  ret i32 %23
}

; Function Attrs: nounwind uwtable
define internal i32 @check_asn1_attribute(ptr noundef %0) #0 {
  %2 = alloca i32, align 4
  %3 = alloca ptr, align 8
  %4 = alloca ptr, align 8
  %5 = alloca i32, align 4
  store ptr %0, ptr %3, align 8, !tbaa !8
  call void @llvm.lifetime.start.p0(i64 8, ptr %4) #5
  %6 = load ptr, ptr %3, align 8, !tbaa !8
  %7 = load ptr, ptr %6, align 8, !tbaa !78
  store ptr %7, ptr %4, align 8, !tbaa !78
  %8 = load ptr, ptr %4, align 8, !tbaa !78
  %9 = call i32 @strncmp(ptr noundef %8, ptr noundef @.str.33, i64 noundef 5) #6
  %10 = icmp ne i32 %9, 0
  br i1 %10, label %11, label %12

11:                                               ; preds = %1
  store i32 0, ptr %2, align 4
  store i32 1, ptr %5, align 4
  br label %27

12:                                               ; preds = %1
  %13 = load ptr, ptr %4, align 8, !tbaa !78
  %14 = getelementptr inbounds i8, ptr %13, i64 5
  store ptr %14, ptr %4, align 8, !tbaa !78
  br label %15

15:                                               ; preds = %21, %12
  %16 = load ptr, ptr %4, align 8, !tbaa !78
  %17 = load i8, ptr %16, align 1, !tbaa !49
  %18 = sext i8 %17 to i32
  %19 = call i32 @ossl_ctype_check(i32 noundef %18, i32 noundef 8)
  %20 = icmp ne i32 %19, 0
  br i1 %20, label %21, label %24

21:                                               ; preds = %15
  %22 = load ptr, ptr %4, align 8, !tbaa !78
  %23 = getelementptr inbounds nuw i8, ptr %22, i32 1
  store ptr %23, ptr %4, align 8, !tbaa !78
  br label %15, !llvm.loop !89

24:                                               ; preds = %15
  %25 = load ptr, ptr %4, align 8, !tbaa !78
  %26 = load ptr, ptr %3, align 8, !tbaa !8
  store ptr %25, ptr %26, align 8, !tbaa !78
  store i32 1, ptr %2, align 4
  store i32 1, ptr %5, align 4
  br label %27

27:                                               ; preds = %24, %11
  call void @llvm.lifetime.end.p0(i64 8, ptr %4) #5
  %28 = load i32, ptr %2, align 4
  ret i32 %28
}

; Function Attrs: inlinehint nounwind uwtable
define internal ptr @ossl_check_const_CONF_VALUE_sk_type(ptr noundef %0) #3 {
  %2 = alloca ptr, align 8
  store ptr %0, ptr %2, align 8, !tbaa !81
  %3 = load ptr, ptr %2, align 8, !tbaa !81
  ret ptr %3
}

; Function Attrs: nounwind uwtable
define i32 @X509_ACERT_add_attr_nconf(ptr noundef %0, ptr noundef %1, ptr noundef %2) #0 {
  %4 = alloca i32, align 4
  %5 = alloca ptr, align 8
  %6 = alloca ptr, align 8
  %7 = alloca ptr, align 8
  %8 = alloca i32, align 4
  %9 = alloca i32, align 4
  %10 = alloca ptr, align 8
  %11 = alloca ptr, align 8
  %12 = alloca ptr, align 8
  %13 = alloca i32, align 4
  %14 = alloca ptr, align 8
  %15 = alloca ptr, align 8
  %16 = alloca i32, align 4
  store ptr %0, ptr %5, align 8, !tbaa !79
  store ptr %1, ptr %6, align 8, !tbaa !78
  store ptr %2, ptr %7, align 8, !tbaa !12
  call void @llvm.lifetime.start.p0(i64 4, ptr %8) #5
  store i32 0, ptr %8, align 4, !tbaa !33
  call void @llvm.lifetime.start.p0(i64 4, ptr %9) #5
  call void @llvm.lifetime.start.p0(i64 8, ptr %10) #5
  %17 = load ptr, ptr %5, align 8, !tbaa !79
  %18 = load ptr, ptr %6, align 8, !tbaa !78
  %19 = call ptr @NCONF_get_section(ptr noundef %17, ptr noundef %18)
  store ptr %19, ptr %10, align 8, !tbaa !81
  %20 = load ptr, ptr %10, align 8, !tbaa !81
  %21 = icmp eq ptr %20, null
  br i1 %21, label %22, label %23

22:                                               ; preds = %3
  br label %96

23:                                               ; preds = %3
  store i32 0, ptr %9, align 4, !tbaa !33
  br label %24

24:                                               ; preds = %92, %23
  %25 = load i32, ptr %9, align 4, !tbaa !33
  %26 = load ptr, ptr %10, align 8, !tbaa !81
  %27 = call ptr @ossl_check_const_CONF_VALUE_sk_type(ptr noundef %26)
  %28 = call i32 @OPENSSL_sk_num(ptr noundef %27)
  %29 = icmp slt i32 %25, %28
  br i1 %29, label %30, label %95

30:                                               ; preds = %24
  call void @llvm.lifetime.start.p0(i64 8, ptr %11) #5
  %31 = load ptr, ptr %10, align 8, !tbaa !81
  %32 = call ptr @ossl_check_const_CONF_VALUE_sk_type(ptr noundef %31)
  %33 = load i32, ptr %9, align 4, !tbaa !33
  %34 = call ptr @OPENSSL_sk_value(ptr noundef %32, i32 noundef %33)
  store ptr %34, ptr %11, align 8, !tbaa !24
  call void @llvm.lifetime.start.p0(i64 8, ptr %12) #5
  %35 = load ptr, ptr %11, align 8, !tbaa !24
  %36 = getelementptr inbounds nuw %struct.CONF_VALUE, ptr %35, i32 0, i32 2
  %37 = load ptr, ptr %36, align 8, !tbaa !83
  store ptr %37, ptr %12, align 8, !tbaa !78
  %38 = load ptr, ptr %12, align 8, !tbaa !78
  %39 = icmp eq ptr %38, null
  br i1 %39, label %40, label %45

40:                                               ; preds = %30
  call void @ERR_new()
  call void @ERR_set_debug(ptr noundef @.str.8, i32 noundef 278, ptr noundef @__func__.X509_ACERT_add_attr_nconf)
  %41 = load ptr, ptr %11, align 8, !tbaa !24
  %42 = getelementptr inbounds nuw %struct.CONF_VALUE, ptr %41, i32 0, i32 1
  %43 = load ptr, ptr %42, align 8, !tbaa !85
  %44 = load ptr, ptr %6, align 8, !tbaa !78
  call void (i32, i32, ptr, ...) @ERR_set_error(i32 noundef 11, i32 noundef 138, ptr noundef @.str.9, ptr noundef %43, ptr noundef %44)
  store i32 2, ptr %16, align 4
  br label %89

45:                                               ; preds = %30
  %46 = call i32 @check_asn1_attribute(ptr noundef %12)
  %47 = icmp eq i32 %46, 1
  br i1 %47, label %48, label %74

48:                                               ; preds = %45
  call void @llvm.lifetime.start.p0(i64 4, ptr %13) #5
  call void @llvm.lifetime.start.p0(i64 8, ptr %14) #5
  store ptr null, ptr %14, align 8, !tbaa !78
  call void @llvm.lifetime.start.p0(i64 8, ptr %15) #5
  %49 = load ptr, ptr %12, align 8, !tbaa !78
  %50 = load ptr, ptr %5, align 8, !tbaa !79
  %51 = call ptr @ASN1_generate_nconf(ptr noundef %49, ptr noundef %50)
  store ptr %51, ptr %15, align 8, !tbaa !86
  %52 = load ptr, ptr %15, align 8, !tbaa !86
  %53 = icmp eq ptr %52, null
  br i1 %53, label %54, label %55

54:                                               ; preds = %48
  store i32 2, ptr %16, align 4
  br label %71

55:                                               ; preds = %48
  %56 = load ptr, ptr %15, align 8, !tbaa !86
  %57 = call i32 @i2d_ASN1_TYPE(ptr noundef %56, ptr noundef %14)
  store i32 %57, ptr %13, align 4, !tbaa !33
  %58 = load ptr, ptr %7, align 8, !tbaa !12
  %59 = load ptr, ptr %11, align 8, !tbaa !24
  %60 = getelementptr inbounds nuw %struct.CONF_VALUE, ptr %59, i32 0, i32 1
  %61 = load ptr, ptr %60, align 8, !tbaa !85
  %62 = load ptr, ptr %14, align 8, !tbaa !78
  %63 = load i32, ptr %13, align 4, !tbaa !33
  %64 = call i32 @X509_ACERT_add1_attr_by_txt(ptr noundef %58, ptr noundef %61, i32 noundef 16, ptr noundef %62, i32 noundef %63)
  store i32 %64, ptr %8, align 4, !tbaa !33
  %65 = load ptr, ptr %14, align 8, !tbaa !78
  call void @CRYPTO_free(ptr noundef %65, ptr noundef @.str.8, i32 noundef 295)
  %66 = load ptr, ptr %15, align 8, !tbaa !86
  call void @ASN1_TYPE_free(ptr noundef %66)
  %67 = load i32, ptr %8, align 4, !tbaa !33
  %68 = icmp ne i32 %67, 0
  br i1 %68, label %70, label %69

69:                                               ; preds = %55
  store i32 2, ptr %16, align 4
  br label %71

70:                                               ; preds = %55
  store i32 0, ptr %16, align 4
  br label %71

71:                                               ; preds = %69, %54, %70
  call void @llvm.lifetime.end.p0(i64 8, ptr %15) #5
  call void @llvm.lifetime.end.p0(i64 8, ptr %14) #5
  call void @llvm.lifetime.end.p0(i64 4, ptr %13) #5
  %72 = load i32, ptr %16, align 4
  switch i32 %72, label %89 [
    i32 0, label %73
  ]

73:                                               ; preds = %71
  br label %88

74:                                               ; preds = %45
  %75 = load ptr, ptr %7, align 8, !tbaa !12
  %76 = load ptr, ptr %11, align 8, !tbaa !24
  %77 = getelementptr inbounds nuw %struct.CONF_VALUE, ptr %76, i32 0, i32 1
  %78 = load ptr, ptr %77, align 8, !tbaa !85
  %79 = load ptr, ptr %12, align 8, !tbaa !78
  %80 = load ptr, ptr %12, align 8, !tbaa !78
  %81 = call i64 @strlen(ptr noundef %80) #6
  %82 = trunc i64 %81 to i32
  %83 = call i32 @X509_ACERT_add1_attr_by_txt(ptr noundef %75, ptr noundef %78, i32 noundef 4, ptr noundef %79, i32 noundef %82)
  store i32 %83, ptr %8, align 4, !tbaa !33
  %84 = load i32, ptr %8, align 4, !tbaa !33
  %85 = icmp ne i32 %84, 0
  br i1 %85, label %87, label %86

86:                                               ; preds = %74
  store i32 2, ptr %16, align 4
  br label %89

87:                                               ; preds = %74
  br label %88

88:                                               ; preds = %87, %73
  store i32 0, ptr %16, align 4
  br label %89

89:                                               ; preds = %86, %40, %88, %71
  call void @llvm.lifetime.end.p0(i64 8, ptr %12) #5
  call void @llvm.lifetime.end.p0(i64 8, ptr %11) #5
  %90 = load i32, ptr %16, align 4
  switch i32 %90, label %98 [
    i32 0, label %91
    i32 2, label %96
  ]

91:                                               ; preds = %89
  br label %92

92:                                               ; preds = %91
  %93 = load i32, ptr %9, align 4, !tbaa !33
  %94 = add nsw i32 %93, 1
  store i32 %94, ptr %9, align 4, !tbaa !33
  br label %24, !llvm.loop !87

95:                                               ; preds = %24
  store i32 1, ptr %8, align 4, !tbaa !33
  br label %96

96:                                               ; preds = %95, %89, %22
  %97 = load i32, ptr %8, align 4, !tbaa !33
  store i32 %97, ptr %4, align 4
  store i32 1, ptr %16, align 4
  br label %98

98:                                               ; preds = %96, %89
  call void @llvm.lifetime.end.p0(i64 8, ptr %10) #5
  call void @llvm.lifetime.end.p0(i64 4, ptr %9) #5
  call void @llvm.lifetime.end.p0(i64 4, ptr %8) #5
  %99 = load i32, ptr %4, align 4
  ret i32 %99
}