; Function Attrs: nounwind uwtable
define range(i32 0, 2) i32 @X509_ACERT_add_attr_nconf(ptr noundef %0, ptr noundef %1, ptr noundef readonly captures(none) %2) local_unnamed_addr #1 {
  %4 = alloca ptr, align 8
  %5 = tail call ptr @NCONF_get_section(ptr noundef %0, ptr noundef %1) #8
  %6 = icmp eq ptr %5, null
  br i1 %6, label %.thread50, label %.preheader

.preheader:                                       ; preds = %3
  %7 = tail call i32 @OPENSSL_sk_num(ptr noundef nonnull %5) #8
  %8 = icmp sgt i32 %7, 0
  br i1 %8, label %.lr.ph, label %.thread50

.lr.ph:                                           ; preds = %.preheader, %.thread54
  %.12764 = phi i32 [ 1, %.thread54 ], [ 0, %.preheader ]
  %.02863 = phi i32 [ %44, %.thread54 ], [ 0, %.preheader ]
  %9 = call ptr @OPENSSL_sk_value(ptr noundef nonnull %5, i32 noundef %.02863) #8
  %10 = getelementptr inbounds nuw i8, ptr %9, i64 16
  %11 = load ptr, ptr %10, align 8, !tbaa !47
  %12 = icmp eq ptr %11, null
  br i1 %12, label %13, label %16

13:                                               ; preds = %.lr.ph
  call void @ERR_new() #8
  call void @ERR_set_debug(ptr noundef nonnull @.str.8, i32 noundef 278, ptr noundef nonnull @__func__.X509_ACERT_add_attr_nconf) #8
  %14 = getelementptr inbounds nuw i8, ptr %9, i64 8
  %15 = load ptr, ptr %14, align 8, !tbaa !49
  call void (i32, i32, ptr, ...) @ERR_set_error(i32 noundef 11, i32 noundef 138, ptr noundef nonnull @.str.9, ptr noundef %15, ptr noundef %1) #8
  br label %.thread50

16:                                               ; preds = %.lr.ph
  %17 = call i32 @strncmp(ptr noundef nonnull dereferenceable(1) %11, ptr noundef nonnull dereferenceable(6) @.str.33, i64 noundef 5) #9
  %.not.i = icmp eq i32 %17, 0
  br i1 %.not.i, label %18, label %36

18:                                               ; preds = %16
  %19 = getelementptr inbounds nuw i8, ptr %11, i64 5
  br label %20

20:                                               ; preds = %20, %18
  %.0.i = phi ptr [ %19, %18 ], [ %24, %20 ]
  %21 = load i8, ptr %.0.i, align 1, !tbaa !20
  %22 = sext i8 %21 to i32
  %23 = call i32 @ossl_ctype_check(i32 noundef %22, i32 noundef 8) #8
  %.not8.i = icmp eq i32 %23, 0
  %24 = getelementptr inbounds nuw i8, ptr %.0.i, i64 1
  br i1 %.not8.i, label %check_asn1_attribute.exit, label %20, !llvm.loop !50

check_asn1_attribute.exit:                        ; preds = %20
  call void @llvm.lifetime.start.p0(i64 8, ptr nonnull %4) #8
  store ptr null, ptr %4, align 8, !tbaa !52
  %25 = call ptr @ASN1_generate_nconf(ptr noundef nonnull %.0.i, ptr noundef %0) #8
  %26 = icmp eq ptr %25, null
  br i1 %26, label %.thread, label %27

.thread:                                          ; preds = %check_asn1_attribute.exit
  call void @llvm.lifetime.end.p0(i64 8, ptr nonnull %4) #8
  br label %.thread50

27:                                               ; preds = %check_asn1_attribute.exit
  %28 = call i32 @i2d_ASN1_TYPE(ptr noundef nonnull %25, ptr noundef nonnull %4) #8
  %29 = getelementptr inbounds nuw i8, ptr %9, i64 8
  %30 = load ptr, ptr %29, align 8, !tbaa !49
  %31 = load ptr, ptr %4, align 8, !tbaa !52
  %32 = load ptr, ptr %2, align 8, !tbaa !22
  %33 = getelementptr inbounds nuw i8, ptr %32, i64 120
  %34 = call ptr @X509at_add1_attr_by_txt(ptr noundef nonnull %33, ptr noundef %30, i32 noundef 16, ptr noundef %31, i32 noundef %28) #8
  %.not59.not = icmp eq ptr %34, null
  %35 = load ptr, ptr %4, align 8, !tbaa !52
  call void @CRYPTO_free(ptr noundef %35, ptr noundef nonnull @.str.8, i32 noundef 295) #8
  call void @ASN1_TYPE_free(ptr noundef nonnull %25) #8
  call void @llvm.lifetime.end.p0(i64 8, ptr nonnull %4) #8
  br i1 %.not59.not, label %.thread50, label %.thread54

36:                                               ; preds = %16
  %37 = getelementptr inbounds nuw i8, ptr %9, i64 8
  %38 = load ptr, ptr %37, align 8, !tbaa !49
  %39 = call i64 @strlen(ptr noundef nonnull dereferenceable(1) %11) #9
  %40 = trunc i64 %39 to i32
  %41 = load ptr, ptr %2, align 8, !tbaa !22
  %42 = getelementptr inbounds nuw i8, ptr %41, i64 120
  %43 = call ptr @X509at_add1_attr_by_txt(ptr noundef nonnull %42, ptr noundef %38, i32 noundef 4, ptr noundef nonnull %11, i32 noundef %40) #8
  %.not = icmp eq ptr %43, null
  br i1 %.not, label %.thread50, label %.thread54

.thread54:                                        ; preds = %36, %27
  %44 = add nuw nsw i32 %.02863, 1
  %45 = call i32 @OPENSSL_sk_num(ptr noundef nonnull %5) #8
  %46 = icmp slt i32 %44, %45
  br i1 %46, label %.lr.ph, label %.thread50, !llvm.loop !53

.thread50:                                        ; preds = %.thread54, %36, %27, %.preheader, %.thread, %13, %3
  %.025 = phi i32 [ 0, %3 ], [ %.12764, %.thread ], [ %.12764, %13 ], [ 1, %.preheader ], [ 1, %.thread54 ], [ 0, %36 ], [ 0, %27 ]
  ret i32 %.025
}